target datalayout = "e-m:e-p270:32:32-p271:32:32-p272:64:64-i64:64-i128:128-f80:128-n8:16:32:64-S128"
target triple = "x86_64-pc-linux-gnu"

%struct.pmix_object_t = type { %union.pthread_mutex_t, ptr, i32, %struct.pmix_tma }
%union.pthread_mutex_t = type { %struct.__pthread_mutex_s }
%struct.__pthread_mutex_s = type { i32, i32, i32, i32, i32, i16, i16, %struct.__pthread_internal_list }
%struct.__pthread_internal_list = type { ptr, ptr }
%struct.pmix_tma = type { ptr, ptr, ptr, ptr, ptr, ptr, ptr, ptr }
%struct.pmix_bfrop_type_info_t = type { %struct.pmix_object_t, i16, ptr, ptr, ptr, ptr, ptr }
%struct.pmix_pointer_array_t = type { %struct.pmix_object_t, i32, i32, i32, i32, i32, ptr, ptr }
%struct.pmix_regattr_t = type { ptr, [512 x i8], i16, ptr }

@.str = private unnamed_addr constant [37 x i8] c"PMIX ERROR: %s in file %s at line %d\00", align 1
@.str.1 = private unnamed_addr constant [23 x i8] c"base/bfrop_base_pack.c\00", align 1

; Function Attrs: inlinehint nounwind uwtable
define internal ptr @pmix_pointer_array_get_item(ptr noundef %0, i32 noundef %1) #3 {
  %3 = alloca ptr, align 8
  %4 = alloca ptr, align 8
  %5 = alloca i32, align 4
  %6 = alloca ptr, align 8
  %7 = alloca i32, align 4
  store ptr %0, ptr %4, align 8, !tbaa !3
  store i32 %1, ptr %5, align 4, !tbaa !9
  call void @llvm.lifetime.start.p0(i64 8, ptr %6) #9
  %8 = load i32, ptr %5, align 4, !tbaa !9
  %9 = icmp sgt i32 0, %8
  br i1 %9, label %16, label %10

10:                                               ; preds = %2
  %11 = load ptr, ptr %4, align 8, !tbaa !3
  %12 = getelementptr inbounds nuw %struct.pmix_pointer_array_t, ptr %11, i32 0, i32 3
  %13 = load i32, ptr %12, align 8, !tbaa !22
  %14 = load i32, ptr %5, align 4, !tbaa !9
  %15 = icmp sle i32 %13, %14
  br label %16

16:                                               ; preds = %10, %2
  %17 = phi i1 [ true, %2 ], [ %15, %10 ]
  %18 = xor i1 %17, true
  %19 = xor i1 %18, true
  %20 = zext i1 %19 to i32
  %21 = sext i32 %20 to i64
  %22 = call i64 @llvm.expect.i64(i64 %21, i64 0)
  %23 = icmp ne i64 %22, 0
  br i1 %23, label %24, label %25

24:                                               ; preds = %16
  store ptr null, ptr %3, align 8
  store i32 1, ptr %7, align 4
  br label %34

25:                                               ; preds = %16
  %26 = load ptr, ptr %4, align 8, !tbaa !3
  %27 = getelementptr inbounds nuw %struct.pmix_pointer_array_t, ptr %26, i32 0, i32 7
  %28 = load ptr, ptr %27, align 8, !tbaa !25
  %29 = load i32, ptr %5, align 4, !tbaa !9
  %30 = sext i32 %29 to i64
  %31 = getelementptr inbounds ptr, ptr %28, i64 %30
  %32 = load ptr, ptr %31, align 8, !tbaa !8
  store ptr %32, ptr %6, align 8, !tbaa !8
  %33 = load ptr, ptr %6, align 8, !tbaa !8
  store ptr %33, ptr %3, align 8
  store i32 1, ptr %7, align 4
  br label %34

34:                                               ; preds = %25, %24
  call void @llvm.lifetime.end.p0(i64 8, ptr %6) #9
  %35 = load ptr, ptr %3, align 8
  ret ptr %35
}

; Function Attrs: nounwind uwtable
define i32 @pmix_bfrops_base_pack_regattr(ptr noundef %0, ptr noundef %1, ptr noundef %2, i32 noundef %3, i16 noundef zeroext %4) #0 {
  %6 = alloca i32, align 4
  %7 = alloca ptr, align 8
  %8 = alloca ptr, align 8
  %9 = alloca ptr, align 8
  %10 = alloca i32, align 4
  %11 = alloca i16, align 2
  %12 = alloca ptr, align 8
  %13 = alloca i32, align 4
  %14 = alloca i32, align 4
  %15 = alloca i32, align 4
  %16 = alloca ptr, align 8
  %17 = alloca ptr, align 8
  %18 = alloca i32, align 4
  %19 = alloca ptr, align 8
  %20 = alloca ptr, align 8
  %21 = alloca ptr, align 8
  %22 = alloca ptr, align 8
  store ptr %0, ptr %7, align 8, !tbaa !3
  store ptr %1, ptr %8, align 8, !tbaa !8
  store ptr %2, ptr %9, align 8, !tbaa !8
  store i32 %3, ptr %10, align 4, !tbaa !9
  store i16 %4, ptr %11, align 2, !tbaa !11
  call void @llvm.lifetime.start.p0(i64 8, ptr %12) #9
  %23 = load ptr, ptr %9, align 8, !tbaa !8
  store ptr %23, ptr %12, align 8, !tbaa !140
  call void @llvm.lifetime.start.p0(i64 4, ptr %13) #9
  call void @llvm.lifetime.start.p0(i64 4, ptr %14) #9
  call void @llvm.lifetime.start.p0(i64 4, ptr %15) #9
  call void @llvm.lifetime.start.p0(i64 8, ptr %16) #9
  store i32 0, ptr %13, align 4, !tbaa !9
  br label %24

24:                                               ; preds = %191, %5
  %25 = load i32, ptr %13, align 4, !tbaa !9
  %26 = load i32, ptr %10, align 4, !tbaa !9
  %27 = icmp slt i32 %25, %26
  br i1 %27, label %28, label %194

28:                                               ; preds = %24
  br label %29

29:                                               ; preds = %28
  call void @llvm.lifetime.start.p0(i64 8, ptr %17) #9
  %30 = load ptr, ptr %7, align 8, !tbaa !3
  %31 = call ptr @pmix_pointer_array_get_item(ptr noundef %30, i32 noundef 3)
  store ptr %31, ptr %17, align 8, !tbaa !8
  %32 = load ptr, ptr %17, align 8, !tbaa !8
  %33 = icmp eq ptr null, %32
  br i1 %33, label %34, label %35

34:                                               ; preds = %29
  store i32 -16, ptr %15, align 4, !tbaa !9
  br label %47

35:                                               ; preds = %29
  %36 = load ptr, ptr %17, align 8, !tbaa !8
  %37 = getelementptr inbounds nuw %struct.pmix_bfrop_type_info_t, ptr %36, i32 0, i32 3
  %38 = load ptr, ptr %37, align 8, !tbaa !20
  %39 = load ptr, ptr %7, align 8, !tbaa !3
  %40 = load ptr, ptr %8, align 8, !tbaa !8
  %41 = load ptr, ptr %12, align 8, !tbaa !140
  %42 = load i32, ptr %13, align 4, !tbaa !9
  %43 = sext i32 %42 to i64
  %44 = getelementptr inbounds %struct.pmix_regattr_t, ptr %41, i64 %43
  %45 = getelementptr inbounds nuw %struct.pmix_regattr_t, ptr %44, i32 0, i32 0
  %46 = call i32 %38(ptr noundef %39, ptr noundef %40, ptr noundef %45, i32 noundef 1, i16 noundef zeroext 3)
  store i32 %46, ptr %15, align 4, !tbaa !9
  br label %47

47:                                               ; preds = %35, %34
  call void @llvm.lifetime.end.p0(i64 8, ptr %17) #9
  br label %48

48:                                               ; preds = %47
  br label %49

49:                                               ; preds = %48
  %50 = load i32, ptr %15, align 4, !tbaa !9
  %51 = icmp ne i32 0, %50
  br i1 %51, label %52, label %54

52:                                               ; preds = %49
  %53 = load i32, ptr %15, align 4, !tbaa !9
  store i32 %53, ptr %6, align 4
  store i32 1, ptr %18, align 4
  br label %195

54:                                               ; preds = %49
  %55 = load ptr, ptr %12, align 8, !tbaa !140
  %56 = load i32, ptr %13, align 4, !tbaa !9
  %57 = sext i32 %56 to i64
  %58 = getelementptr inbounds %struct.pmix_regattr_t, ptr %55, i64 %57
  %59 = getelementptr inbounds nuw %struct.pmix_regattr_t, ptr %58, i32 0, i32 1
  %60 = getelementptr inbounds [512 x i8], ptr %59, i64 0, i64 0
  store ptr %60, ptr %16, align 8, !tbaa !37
  br label %61

61:                                               ; preds = %54
  call void @llvm.lifetime.start.p0(i64 8, ptr %19) #9
  %62 = load ptr, ptr %7, align 8, !tbaa !3
  %63 = call ptr @pmix_pointer_array_get_item(ptr noundef %62, i32 noundef 3)
  store ptr %63, ptr %19, align 8, !tbaa !8
  %64 = load ptr, ptr %19, align 8, !tbaa !8
  %65 = icmp eq ptr null, %64
  br i1 %65, label %66, label %67

66:                                               ; preds = %61
  store i32 -16, ptr %15, align 4, !tbaa !9
  br label %74

67:                                               ; preds = %61
  %68 = load ptr, ptr %19, align 8, !tbaa !8
  %69 = getelementptr inbounds nuw %struct.pmix_bfrop_type_info_t, ptr %68, i32 0, i32 3
  %70 = load ptr, ptr %69, align 8, !tbaa !20
  %71 = load ptr, ptr %7, align 8, !tbaa !3
  %72 = load ptr, ptr %8, align 8, !tbaa !8
  %73 = call i32 %70(ptr noundef %71, ptr noundef %72, ptr noundef %16, i32 noundef 1, i16 noundef zeroext 3)
  store i32 %73, ptr %15, align 4, !tbaa !9
  br label %74

74:                                               ; preds = %67, %66
  call void @llvm.lifetime.end.p0(i64 8, ptr %19) #9
  br label %75

75:                                               ; preds = %74
  br label %76

76:                                               ; preds = %75
  %77 = load i32, ptr %15, align 4, !tbaa !9
  %78 = icmp ne i32 0, %77
  br i1 %78, label %79, label %81

79:                                               ; preds = %76
  %80 = load i32, ptr %15, align 4, !tbaa !9
  store i32 %80, ptr %6, align 4
  store i32 1, ptr %18, align 4
  br label %195

81:                                               ; preds = %76
  br label %82

82:                                               ; preds = %81
  call void @llvm.lifetime.start.p0(i64 8, ptr %20) #9
  %83 = load ptr, ptr %7, align 8, !tbaa !3
  %84 = call ptr @pmix_pointer_array_get_item(ptr noundef %83, i32 noundef 36)
  store ptr %84, ptr %20, align 8, !tbaa !8
  %85 = load ptr, ptr %20, align 8, !tbaa !8
  %86 = icmp eq ptr null, %85
  br i1 %86, label %87, label %88

87:                                               ; preds = %82
  store i32 -16, ptr %15, align 4, !tbaa !9
  br label %100

88:                                               ; preds = %82
  %89 = load ptr, ptr %20, align 8, !tbaa !8
  %90 = getelementptr inbounds nuw %struct.pmix_bfrop_type_info_t, ptr %89, i32 0, i32 3
  %91 = load ptr, ptr %90, align 8, !tbaa !20
  %92 = load ptr, ptr %7, align 8, !tbaa !3
  %93 = load ptr, ptr %8, align 8, !tbaa !8
  %94 = load ptr, ptr %12, align 8, !tbaa !140
  %95 = load i32, ptr %13, align 4, !tbaa !9
  %96 = sext i32 %95 to i64
  %97 = getelementptr inbounds %struct.pmix_regattr_t, ptr %94, i64 %96
  %98 = getelementptr inbounds nuw %struct.pmix_regattr_t, ptr %97, i32 0, i32 2
  %99 = call i32 %91(ptr noundef %92, ptr noundef %93, ptr noundef %98, i32 noundef 1, i16 noundef zeroext 36)
  store i32 %99, ptr %15, align 4, !tbaa !9
  br label %100

100:                                              ; preds = %88, %87
  call void @llvm.lifetime.end.p0(i64 8, ptr %20) #9
  br label %101

101:                                              ; preds = %100
  br label %102

102:                                              ; preds = %101
  %103 = load i32, ptr %15, align 4, !tbaa !9
  %104 = icmp ne i32 0, %103
  br i1 %104, label %105, label %116

105:                                              ; preds = %102
  br label %106

106:                                              ; preds = %105
  %107 = load i32, ptr %15, align 4, !tbaa !9
  %108 = icmp ne i32 -2, %107
  br i1 %108, label %109, label %112

109:                                              ; preds = %106
  %110 = load i32, ptr %15, align 4, !tbaa !9
  %111 = call ptr @PMIx_Error_string(i32 noundef %110)
  call void (i32, ptr, ...) @pmix_output(i32 noundef 0, ptr noundef @.str, ptr noundef %111, ptr noundef @.str.1, i32 noundef 1129)
  br label %112

112:                                              ; preds = %109, %106
  br label %113

113:                                              ; preds = %112
  br label %114

114:                                              ; preds = %113
  %115 = load i32, ptr %15, align 4, !tbaa !9
  store i32 %115, ptr %6, align 4
  store i32 1, ptr %18, align 4
  br label %195

116:                                              ; preds = %102
  %117 = load ptr, ptr %12, align 8, !tbaa !140
  %118 = load i32, ptr %13, align 4, !tbaa !9
  %119 = sext i32 %118 to i64
  %120 = getelementptr inbounds %struct.pmix_regattr_t, ptr %117, i64 %119
  %121 = getelementptr inbounds nuw %struct.pmix_regattr_t, ptr %120, i32 0, i32 3
  %122 = load ptr, ptr %121, align 8, !tbaa !142
  %123 = call i32 @PMIx_Argv_count(ptr noundef %122)
  store i32 %123, ptr %14, align 4, !tbaa !9
  br label %124

124:                                              ; preds = %116
  call void @llvm.lifetime.start.p0(i64 8, ptr %21) #9
  %125 = load ptr, ptr %7, align 8, !tbaa !3
  %126 = call ptr @pmix_pointer_array_get_item(ptr noundef %125, i32 noundef 9)
  store ptr %126, ptr %21, align 8, !tbaa !8
  %127 = load ptr, ptr %21, align 8, !tbaa !8
  %128 = icmp eq ptr null, %127
  br i1 %128, label %129, label %130

129:                                              ; preds = %124
  store i32 -16, ptr %15, align 4, !tbaa !9
  br label %137

130:                                              ; preds = %124
  %131 = load ptr, ptr %21, align 8, !tbaa !8
  %132 = getelementptr inbounds nuw %struct.pmix_bfrop_type_info_t, ptr %131, i32 0, i32 3
  %133 = load ptr, ptr %132, align 8, !tbaa !20
  %134 = load ptr, ptr %7, align 8, !tbaa !3
  %135 = load ptr, ptr %8, align 8, !tbaa !8
  %136 = call i32 %133(ptr noundef %134, ptr noundef %135, ptr noundef %14, i32 noundef 1, i16 noundef zeroext 9)
  store i32 %136, ptr %15, align 4, !tbaa !9
  br label %137

137:                                              ; preds = %130, %129
  call void @llvm.lifetime.end.p0(i64 8, ptr %21) #9
  br label %138

138:                                              ; preds = %137
  br label %139

139:                                              ; preds = %138
  %140 = load i32, ptr %15, align 4, !tbaa !9
  %141 = icmp ne i32 0, %140
  br i1 %141, label %142, label %153

142:                                              ; preds = %139
  br label %143

143:                                              ; preds = %142
  %144 = load i32, ptr %15, align 4, !tbaa !9
  %145 = icmp ne i32 -2, %144
  br i1 %145, label %146, label %149

146:                                              ; preds = %143
  %147 = load i32, ptr %15, align 4, !tbaa !9
  %148 = call ptr @PMIx_Error_string(i32 noundef %147)
  call void (i32, ptr, ...) @pmix_output(i32 noundef 0, ptr noundef @.str, ptr noundef %148, ptr noundef @.str.1, i32 noundef 1136)
  br label %149

149:                                              ; preds = %146, %143
  br label %150

150:                                              ; preds = %149
  br label %151

151:                                              ; preds = %150
  %152 = load i32, ptr %15, align 4, !tbaa !9
  store i32 %152, ptr %6, align 4
  store i32 1, ptr %18, align 4
  br label %195

153:                                              ; preds = %139
  br label %154

154:                                              ; preds = %153
  call void @llvm.lifetime.start.p0(i64 8, ptr %22) #9
  %155 = load ptr, ptr %7, align 8, !tbaa !3
  %156 = call ptr @pmix_pointer_array_get_item(ptr noundef %155, i32 noundef 3)
  store ptr %156, ptr %22, align 8, !tbaa !8
  %157 = load ptr, ptr %22, align 8, !tbaa !8
  %158 = icmp eq ptr null, %157
  br i1 %158, label %159, label %160

159:                                              ; preds = %154
  store i32 -16, ptr %15, align 4, !tbaa !9
  br label %174

160:                                              ; preds = %154
  %161 = load ptr, ptr %22, align 8, !tbaa !8
  %162 = getelementptr inbounds nuw %struct.pmix_bfrop_type_info_t, ptr %161, i32 0, i32 3
  %163 = load ptr, ptr %162, align 8, !tbaa !20
  %164 = load ptr, ptr %7, align 8, !tbaa !3
  %165 = load ptr, ptr %8, align 8, !tbaa !8
  %166 = load ptr, ptr %12, align 8, !tbaa !140
  %167 = load i32, ptr %13, align 4, !tbaa !9
  %168 = sext i32 %167 to i64
  %169 = getelementptr inbounds %struct.pmix_regattr_t, ptr %166, i64 %168
  %170 = getelementptr inbounds nuw %struct.pmix_regattr_t, ptr %169, i32 0, i32 3
  %171 = load ptr, ptr %170, align 8, !tbaa !142
  %172 = load i32, ptr %14, align 4, !tbaa !9
  %173 = call i32 %163(ptr noundef %164, ptr noundef %165, ptr noundef %171, i32 noundef %172, i16 noundef zeroext 3)
  store i32 %173, ptr %15, align 4, !tbaa !9
  br label %174

174:                                              ; preds = %160, %159
  call void @llvm.lifetime.end.p0(i64 8, ptr %22) #9
  br label %175

175:                                              ; preds = %174
  br label %176

176:                                              ; preds = %175
  %177 = load i32, ptr %15, align 4, !tbaa !9
  %178 = icmp ne i32 0, %177
  br i1 %178, label %179, label %190

179:                                              ; preds = %176
  br label %180

180:                                              ; preds = %179
  %181 = load i32, ptr %15, align 4, !tbaa !9
  %182 = icmp ne i32 -2, %181
  br i1 %182, label %183, label %186

183:                                              ; preds = %180
  %184 = load i32, ptr %15, align 4, !tbaa !9
  %185 = call ptr @PMIx_Error_string(i32 noundef %184)
  call void (i32, ptr, ...) @pmix_output(i32 noundef 0, ptr noundef @.str, ptr noundef %185, ptr noundef @.str.1, i32 noundef 1141)
  br label %186

186:                                              ; preds = %183, %180
  br label %187

187:                                              ; preds = %186
  br label %188

188:                                              ; preds = %187
  %189 = load i32, ptr %15, align 4, !tbaa !9
  store i32 %189, ptr %6, align 4
  store i32 1, ptr %18, align 4
  br label %195

190:                                              ; preds = %176
  br label %191

191:                                              ; preds = %190
  %192 = load i32, ptr %13, align 4, !tbaa !9
  %193 = add nsw i32 %192, 1
  store i32 %193, ptr %13, align 4, !tbaa !9
  br label %24, !llvm.loop !144

194:                                              ; preds = %24
  store i32 0, ptr %6, align 4
  store i32 1, ptr %18, align 4
  br label %195

195:                                              ; preds = %194, %188, %151, %114, %79, %52
  call void @llvm.lifetime.end.p0(i64 8, ptr %16) #9
  call void @llvm.lifetime.end.p0(i64 4, ptr %15) #9
  call void @llvm.lifetime.end.p0(i64 4, ptr %14) #9
  call void @llvm.lifetime.end.p0(i64 4, ptr %13) #9
  call void @llvm.lifetime.end.p0(i64 8, ptr %12) #9
  %196 = load i32, ptr %6, align 4
  ret i32 %196
}