; Function Attrs: nounwind uwtable
define i32 @pmix_bfrops_base_pack_regattr(ptr noundef %0, ptr noundef %1, ptr noundef %2, i32 noundef %3, i16 noundef zeroext %4) local_unnamed_addr #0 {
  %6 = alloca i32, align 4
  %7 = alloca ptr, align 8
  call void @llvm.lifetime.start.p0(i64 4, ptr nonnull %6) #8
  call void @llvm.lifetime.start.p0(i64 8, ptr nonnull %7) #8
  %8 = icmp sgt i32 %3, 0
  br i1 %8, label %.lr.ph, label %.thread

.lr.ph:                                           ; preds = %5
  %9 = getelementptr inbounds nuw i8, ptr %0, i64 128
  %10 = getelementptr inbounds nuw i8, ptr %0, i64 152
  %wide.trip.count = zext nneg i32 %3 to i64
  br label %11

11:                                               ; preds = %.lr.ph, %69
  %indvars.iv = phi i64 [ 0, %.lr.ph ], [ %indvars.iv.next, %69 ]
  %12 = load i32, ptr %9, align 8, !tbaa !15
  %.not.i = icmp sgt i32 %12, 3
  br i1 %.not.i, label %pmix_pointer_array_get_item.exit, label %.thread, !prof !18

pmix_pointer_array_get_item.exit:                 ; preds = %11
  %13 = load ptr, ptr %10, align 8, !tbaa !19
  %14 = getelementptr inbounds nuw i8, ptr %13, i64 24
  %15 = load ptr, ptr %14, align 8, !tbaa !20
  %16 = icmp eq ptr %15, null
  br i1 %16, label %.thread, label %17

17:                                               ; preds = %pmix_pointer_array_get_item.exit
  %18 = getelementptr inbounds nuw i8, ptr %15, i64 136
  %19 = load ptr, ptr %18, align 8, !tbaa !21
  %20 = getelementptr inbounds nuw %struct.pmix_regattr_t, ptr %2, i64 %indvars.iv
  %21 = call i32 %19(ptr noundef nonnull %0, ptr noundef %1, ptr noundef %20, i32 noundef 1, i16 noundef zeroext 3) #8
  %.not = icmp eq i32 %21, 0
  br i1 %.not, label %22, label %.thread

22:                                               ; preds = %17
  %23 = getelementptr inbounds nuw i8, ptr %20, i64 8
  store ptr %23, ptr %7, align 8, !tbaa !45
  %24 = load i32, ptr %9, align 8, !tbaa !15
  %.not.i69 = icmp sgt i32 %24, 3
  br i1 %.not.i69, label %pmix_pointer_array_get_item.exit71, label %.thread, !prof !18

pmix_pointer_array_get_item.exit71:               ; preds = %22
  %25 = load ptr, ptr %10, align 8, !tbaa !19
  %26 = getelementptr inbounds nuw i8, ptr %25, i64 24
  %27 = load ptr, ptr %26, align 8, !tbaa !20
  %28 = icmp eq ptr %27, null
  br i1 %28, label %.thread, label %29

29:                                               ; preds = %pmix_pointer_array_get_item.exit71
  %30 = getelementptr inbounds nuw i8, ptr %27, i64 136
  %31 = load ptr, ptr %30, align 8, !tbaa !21
  %32 = call i32 %31(ptr noundef nonnull %0, ptr noundef %1, ptr noundef nonnull %7, i32 noundef 1, i16 noundef zeroext 3) #8
  %.not62 = icmp eq i32 %32, 0
  br i1 %.not62, label %33, label %.thread

33:                                               ; preds = %29
  %34 = load i32, ptr %9, align 8, !tbaa !15
  %.not.i72 = icmp sgt i32 %34, 36
  br i1 %.not.i72, label %pmix_pointer_array_get_item.exit74, label %.thread.sink.split, !prof !18

pmix_pointer_array_get_item.exit74:               ; preds = %33
  %35 = load ptr, ptr %10, align 8, !tbaa !19
  %36 = getelementptr inbounds nuw i8, ptr %35, i64 288
  %37 = load ptr, ptr %36, align 8, !tbaa !20
  %38 = icmp eq ptr %37, null
  br i1 %38, label %.thread.sink.split, label %39

39:                                               ; preds = %pmix_pointer_array_get_item.exit74
  %40 = getelementptr inbounds nuw i8, ptr %37, i64 136
  %41 = load ptr, ptr %40, align 8, !tbaa !21
  %42 = getelementptr inbounds nuw i8, ptr %20, i64 520
  %43 = call i32 %41(ptr noundef nonnull %0, ptr noundef %1, ptr noundef nonnull %42, i32 noundef 1, i16 noundef zeroext 36) #8
  switch i32 %43, label %.thread.sink.split [
    i32 0, label %44
    i32 -2, label %.thread
  ]

44:                                               ; preds = %39
  %45 = getelementptr inbounds nuw i8, ptr %20, i64 528
  %46 = load ptr, ptr %45, align 8, !tbaa !108
  %47 = call i32 @PMIx_Argv_count(ptr noundef %46) #8
  store i32 %47, ptr %6, align 4, !tbaa !3
  %48 = load i32, ptr %9, align 8, !tbaa !15
  %.not.i75 = icmp sgt i32 %48, 9
  br i1 %.not.i75, label %pmix_pointer_array_get_item.exit77, label %.thread.sink.split, !prof !18

pmix_pointer_array_get_item.exit77:               ; preds = %44
  %49 = load ptr, ptr %10, align 8, !tbaa !19
  %50 = getelementptr inbounds nuw i8, ptr %49, i64 72
  %51 = load ptr, ptr %50, align 8, !tbaa !20
  %52 = icmp eq ptr %51, null
  br i1 %52, label %.thread.sink.split, label %53

53:                                               ; preds = %pmix_pointer_array_get_item.exit77
  %54 = getelementptr inbounds nuw i8, ptr %51, i64 136
  %55 = load ptr, ptr %54, align 8, !tbaa !21
  %56 = call i32 %55(ptr noundef nonnull %0, ptr noundef %1, ptr noundef nonnull %6, i32 noundef 1, i16 noundef zeroext 9) #8
  switch i32 %56, label %.thread.sink.split [
    i32 0, label %57
    i32 -2, label %.thread
  ]

57:                                               ; preds = %53
  %58 = load i32, ptr %9, align 8, !tbaa !15
  %.not.i78 = icmp sgt i32 %58, 3
  br i1 %.not.i78, label %pmix_pointer_array_get_item.exit80, label %.thread.sink.split, !prof !18

pmix_pointer_array_get_item.exit80:               ; preds = %57
  %59 = load ptr, ptr %10, align 8, !tbaa !19
  %60 = getelementptr inbounds nuw i8, ptr %59, i64 24
  %61 = load ptr, ptr %60, align 8, !tbaa !20
  %62 = icmp eq ptr %61, null
  br i1 %62, label %.thread.sink.split, label %63

63:                                               ; preds = %pmix_pointer_array_get_item.exit80
  %64 = getelementptr inbounds nuw i8, ptr %61, i64 136
  %65 = load ptr, ptr %64, align 8, !tbaa !21
  %66 = load ptr, ptr %45, align 8, !tbaa !108
  %67 = load i32, ptr %6, align 4, !tbaa !3
  %68 = call i32 %65(ptr noundef nonnull %0, ptr noundef %1, ptr noundef %66, i32 noundef %67, i16 noundef zeroext 3) #8
  switch i32 %68, label %.thread.sink.split [
    i32 0, label %69
    i32 -2, label %.thread
  ]

69:                                               ; preds = %63
  %indvars.iv.next = add nuw nsw i64 %indvars.iv, 1
  %exitcond.not = icmp eq i64 %indvars.iv.next, %wide.trip.count
  br i1 %exitcond.not, label %.thread, label %11, !llvm.loop !110

.thread.sink.split:                               ; preds = %63, %pmix_pointer_array_get_item.exit80, %57, %53, %pmix_pointer_array_get_item.exit77, %44, %39, %pmix_pointer_array_get_item.exit74, %33
  %.4103.sink = phi i32 [ %43, %39 ], [ -16, %pmix_pointer_array_get_item.exit74 ], [ -16, %33 ], [ %56, %53 ], [ -16, %pmix_pointer_array_get_item.exit77 ], [ -16, %44 ], [ %68, %63 ], [ -16, %pmix_pointer_array_get_item.exit80 ], [ -16, %57 ]
  %.sink122 = phi i32 [ 1129, %39 ], [ 1129, %pmix_pointer_array_get_item.exit74 ], [ 1129, %33 ], [ 1136, %53 ], [ 1136, %pmix_pointer_array_get_item.exit77 ], [ 1136, %44 ], [ 1141, %63 ], [ 1141, %pmix_pointer_array_get_item.exit80 ], [ 1141, %57 ]
  %70 = call ptr @PMIx_Error_string(i32 noundef %.4103.sink) #8
  call void (i32, ptr, ...) @pmix_output(i32 noundef 0, ptr noundef nonnull @.str, ptr noundef %70, ptr noundef nonnull @.str.1, i32 noundef %.sink122) #8
  br label %.thread

.thread:                                          ; preds = %17, %29, %39, %53, %63, %69, %pmix_pointer_array_get_item.exit, %11, %pmix_pointer_array_get_item.exit71, %22, %.thread.sink.split, %5
  %.0 = phi i32 [ 0, %5 ], [ %.4103.sink, %.thread.sink.split ], [ %21, %17 ], [ %32, %29 ], [ %43, %39 ], [ %56, %53 ], [ %68, %63 ], [ 0, %69 ], [ -16, %pmix_pointer_array_get_item.exit ], [ -16, %11 ], [ -16, %pmix_pointer_array_get_item.exit71 ], [ -16, %22 ]
  call void @llvm.lifetime.end.p0(i64 8, ptr nonnull %7) #8
  call void @llvm.lifetime.end.p0(i64 4, ptr nonnull %6) #8
  ret i32 %.0
}